; Function Attrs: mustprogress uwtable
define dso_local void @_ZN5cmsys4GlobC2Ev(ptr noundef nonnull align 8 dereferenceable(82) %0) unnamed_addr #3 align 2 personality ptr @__gxx_personality_v0 {
  %2 = getelementptr inbounds nuw i8, ptr %0, i64 16
  tail call void @_ZNSt7__cxx1112basic_stringIcSt11char_traitsIcESaIcEEC1Ev(ptr noundef nonnull align 8 dereferenceable(32) %2) #17
  %3 = getelementptr inbounds nuw i8, ptr %0, i64 56
  tail call void @llvm.memset.p0.i64(ptr noundef nonnull align 8 dereferenceable(24) %3, i8 0, i64 24, i1 false)
  %4 = invoke noalias noundef nonnull dereferenceable(48) ptr @_Znwm(i64 noundef 48) #18
          to label %5 unwind label %13

5:                                                ; preds = %1
  tail call void @llvm.memset.p0.i64(ptr noundef nonnull align 8 dereferenceable(48) %4, i8 0, i64 48, i1 false)
  store ptr %4, ptr %0, align 8
  %6 = getelementptr inbounds nuw i8, ptr %0, i64 8
  store i8 0, ptr %6, align 8
  %7 = invoke noundef nonnull align 8 dereferenceable(32) ptr @_ZNSt7__cxx1112basic_stringIcSt11char_traitsIcESaIcEEaSEPKc(ptr noundef nonnull align 8 dereferenceable(32) %2, ptr noundef nonnull @.str)
          to label %8 unwind label %13

8:                                                ; preds = %5
  %9 = getelementptr inbounds nuw i8, ptr %0, i64 48
  store i8 1, ptr %9, align 8
  %10 = getelementptr inbounds nuw i8, ptr %0, i64 52
  store i32 0, ptr %10, align 4
  %11 = getelementptr inbounds nuw i8, ptr %0, i64 80
  store i8 1, ptr %11, align 8
  %12 = getelementptr inbounds nuw i8, ptr %0, i64 81
  store i8 0, ptr %12, align 1
  ret void

13:                                               ; preds = %5, %1
  %14 = landingpad { ptr, i32 }
          cleanup
  tail call void @_ZNSt6vectorINSt7__cxx1112basic_stringIcSt11char_traitsIcESaIcEEESaIS5_EED2Ev(ptr noundef nonnull align 8 dereferenceable(24) %3) #17
  tail call void @_ZNSt7__cxx1112basic_stringIcSt11char_traitsIcESaIcEED1Ev(ptr noundef nonnull align 8 dereferenceable(32) %2) #17
  resume { ptr, i32 } %14
}